target datalayout = "e-m:e-p270:32:32-p271:32:32-p272:64:64-i64:64-i128:128-f80:128-n8:16:32:64-S128"
target triple = "x86_64-pc-linux-gnu"

%struct.SDL_RenderViewState = type { i32, i32, %struct.SDL_Rect, %struct.SDL_Rect, %struct.SDL_Rect, %struct.SDL_Rect, i8, %struct.SDL_FPoint, i32, i32, i32, %struct.SDL_FRect, %struct.SDL_FRect, %struct.SDL_FPoint, %struct.SDL_FPoint, %struct.SDL_FPoint }
%struct.SDL_FRect = type { float, float, float, float }
%struct.SDL_FPoint = type { float, float }
%struct.SDL_Rect = type { i32, i32, i32, i32 }

; Function Attrs: nounwind uwtable
define internal void @UpdatePixelViewport(ptr noundef %0, ptr noundef %1) #0 {
  %3 = alloca ptr, align 8
  %4 = alloca ptr, align 8
  store ptr %0, ptr %3, align 8
  store ptr %1, ptr %4, align 8
  %5 = load ptr, ptr %4, align 8
  %6 = getelementptr inbounds nuw %struct.SDL_RenderViewState, ptr %5, i32 0, i32 2
  %7 = getelementptr inbounds nuw %struct.SDL_Rect, ptr %6, i32 0, i32 0
  %8 = load i32, ptr %7, align 4
  %9 = sitofp i32 %8 to float
  %10 = load ptr, ptr %4, align 8
  %11 = getelementptr inbounds nuw %struct.SDL_RenderViewState, ptr %10, i32 0, i32 15
  %12 = getelementptr inbounds nuw %struct.SDL_FPoint, ptr %11, i32 0, i32 0
  %13 = load float, ptr %12, align 4
  %14 = load ptr, ptr %4, align 8
  %15 = getelementptr inbounds nuw %struct.SDL_RenderViewState, ptr %14, i32 0, i32 14
  %16 = getelementptr inbounds nuw %struct.SDL_FPoint, ptr %15, i32 0, i32 0
  %17 = load float, ptr %16, align 4
  %18 = call float @llvm.fmuladd.f32(float %9, float %13, float %17)
  %19 = call float @SDL_floorf_REAL(float noundef %18)
  %20 = fptosi float %19 to i32
  %21 = load ptr, ptr %4, align 8
  %22 = getelementptr inbounds nuw %struct.SDL_RenderViewState, ptr %21, i32 0, i32 3
  %23 = getelementptr inbounds nuw %struct.SDL_Rect, ptr %22, i32 0, i32 0
  store i32 %20, ptr %23, align 4
  %24 = load ptr, ptr %4, align 8
  %25 = getelementptr inbounds nuw %struct.SDL_RenderViewState, ptr %24, i32 0, i32 2
  %26 = getelementptr inbounds nuw %struct.SDL_Rect, ptr %25, i32 0, i32 1
  %27 = load i32, ptr %26, align 4
  %28 = sitofp i32 %27 to float
  %29 = load ptr, ptr %4, align 8
  %30 = getelementptr inbounds nuw %struct.SDL_RenderViewState, ptr %29, i32 0, i32 15
  %31 = getelementptr inbounds nuw %struct.SDL_FPoint, ptr %30, i32 0, i32 1
  %32 = load float, ptr %31, align 4
  %33 = load ptr, ptr %4, align 8
  %34 = getelementptr inbounds nuw %struct.SDL_RenderViewState, ptr %33, i32 0, i32 14
  %35 = getelementptr inbounds nuw %struct.SDL_FPoint, ptr %34, i32 0, i32 1
  %36 = load float, ptr %35, align 4
  %37 = call float @llvm.fmuladd.f32(float %28, float %32, float %36)
  %38 = call float @SDL_floorf_REAL(float noundef %37)
  %39 = fptosi float %38 to i32
  %40 = load ptr, ptr %4, align 8
  %41 = getelementptr inbounds nuw %struct.SDL_RenderViewState, ptr %40, i32 0, i32 3
  %42 = getelementptr inbounds nuw %struct.SDL_Rect, ptr %41, i32 0, i32 1
  store i32 %39, ptr %42, align 4
  %43 = load ptr, ptr %4, align 8
  %44 = getelementptr inbounds nuw %struct.SDL_RenderViewState, ptr %43, i32 0, i32 2
  %45 = getelementptr inbounds nuw %struct.SDL_Rect, ptr %44, i32 0, i32 2
  %46 = load i32, ptr %45, align 4
  %47 = icmp sge i32 %46, 0
  br i1 %47, label %48, label %64

48:                                               ; preds = %2
  %49 = load ptr, ptr %4, align 8
  %50 = getelementptr inbounds nuw %struct.SDL_RenderViewState, ptr %49, i32 0, i32 2
  %51 = getelementptr inbounds nuw %struct.SDL_Rect, ptr %50, i32 0, i32 2
  %52 = load i32, ptr %51, align 4
  %53 = sitofp i32 %52 to float
  %54 = load ptr, ptr %4, align 8
  %55 = getelementptr inbounds nuw %struct.SDL_RenderViewState, ptr %54, i32 0, i32 15
  %56 = getelementptr inbounds nuw %struct.SDL_FPoint, ptr %55, i32 0, i32 0
  %57 = load float, ptr %56, align 4
  %58 = fmul float %53, %57
  %59 = call float @SDL_ceilf_REAL(float noundef %58)
  %60 = fptosi float %59 to i32
  %61 = load ptr, ptr %4, align 8
  %62 = getelementptr inbounds nuw %struct.SDL_RenderViewState, ptr %61, i32 0, i32 3
  %63 = getelementptr inbounds nuw %struct.SDL_Rect, ptr %62, i32 0, i32 2
  store i32 %60, ptr %63, align 4
  br label %71

64:                                               ; preds = %2
  %65 = load ptr, ptr %4, align 8
  %66 = getelementptr inbounds nuw %struct.SDL_RenderViewState, ptr %65, i32 0, i32 0
  %67 = load i32, ptr %66, align 4
  %68 = load ptr, ptr %4, align 8
  %69 = getelementptr inbounds nuw %struct.SDL_RenderViewState, ptr %68, i32 0, i32 3
  %70 = getelementptr inbounds nuw %struct.SDL_Rect, ptr %69, i32 0, i32 2
  store i32 %67, ptr %70, align 4
  br label %71

71:                                               ; preds = %64, %48
  %72 = load ptr, ptr %4, align 8
  %73 = getelementptr inbounds nuw %struct.SDL_RenderViewState, ptr %72, i32 0, i32 2
  %74 = getelementptr inbounds nuw %struct.SDL_Rect, ptr %73, i32 0, i32 3
  %75 = load i32, ptr %74, align 4
  %76 = icmp sge i32 %75, 0
  br i1 %76, label %77, label %93

77:                                               ; preds = %71
  %78 = load ptr, ptr %4, align 8
  %79 = getelementptr inbounds nuw %struct.SDL_RenderViewState, ptr %78, i32 0, i32 2
  %80 = getelementptr inbounds nuw %struct.SDL_Rect, ptr %79, i32 0, i32 3
  %81 = load i32, ptr %80, align 4
  %82 = sitofp i32 %81 to float
  %83 = load ptr, ptr %4, align 8
  %84 = getelementptr inbounds nuw %struct.SDL_RenderViewState, ptr %83, i32 0, i32 15
  %85 = getelementptr inbounds nuw %struct.SDL_FPoint, ptr %84, i32 0, i32 1
  %86 = load float, ptr %85, align 4
  %87 = fmul float %82, %86
  %88 = call float @SDL_ceilf_REAL(float noundef %87)
  %89 = fptosi float %88 to i32
  %90 = load ptr, ptr %4, align 8
  %91 = getelementptr inbounds nuw %struct.SDL_RenderViewState, ptr %90, i32 0, i32 3
  %92 = getelementptr inbounds nuw %struct.SDL_Rect, ptr %91, i32 0, i32 3
  store i32 %89, ptr %92, align 4
  br label %100

93:                                               ; preds = %71
  %94 = load ptr, ptr %4, align 8
  %95 = getelementptr inbounds nuw %struct.SDL_RenderViewState, ptr %94, i32 0, i32 1
  %96 = load i32, ptr %95, align 4
  %97 = load ptr, ptr %4, align 8
  %98 = getelementptr inbounds nuw %struct.SDL_RenderViewState, ptr %97, i32 0, i32 3
  %99 = getelementptr inbounds nuw %struct.SDL_Rect, ptr %98, i32 0, i32 3
  store i32 %96, ptr %99, align 4
  br label %100

100:                                              ; preds = %93, %77
  ret void
}