; Function Attrs: nounwind uwtable
define internal fastcc void @UpdatePixelViewport(ptr noundef captures(none) initializes((24, 40)) %0) unnamed_addr #0 {
  %2 = getelementptr inbounds nuw i8, ptr %0, i64 8
  %3 = load i32, ptr %2, align 4
  %4 = sitofp i32 %3 to float
  %5 = getelementptr inbounds nuw i8, ptr %0, i64 144
  %6 = load float, ptr %5, align 4
  %7 = getelementptr inbounds nuw i8, ptr %0, i64 136
  %8 = load float, ptr %7, align 4
  %9 = tail call float @llvm.fmuladd.f32(float %4, float %6, float %8)
  %10 = tail call float @SDL_floorf_REAL(float noundef %9) #15
  %11 = fptosi float %10 to i32
  %12 = getelementptr inbounds nuw i8, ptr %0, i64 24
  store i32 %11, ptr %12, align 4
  %13 = getelementptr inbounds nuw i8, ptr %0, i64 12
  %14 = load i32, ptr %13, align 4
  %15 = sitofp i32 %14 to float
  %16 = getelementptr inbounds nuw i8, ptr %0, i64 148
  %17 = load float, ptr %16, align 4
  %18 = getelementptr inbounds nuw i8, ptr %0, i64 140
  %19 = load float, ptr %18, align 4
  %20 = tail call float @llvm.fmuladd.f32(float %15, float %17, float %19)
  %21 = tail call float @SDL_floorf_REAL(float noundef %20) #15
  %22 = fptosi float %21 to i32
  %23 = getelementptr inbounds nuw i8, ptr %0, i64 28
  store i32 %22, ptr %23, align 4
  %24 = getelementptr inbounds nuw i8, ptr %0, i64 16
  %25 = load i32, ptr %24, align 4
  %26 = icmp sgt i32 %25, -1
  br i1 %26, label %27, label %33

27:                                               ; preds = %1
  %28 = uitofp nneg i32 %25 to float
  %29 = load float, ptr %5, align 4
  %30 = fmul float %29, %28
  %31 = tail call float @SDL_ceilf_REAL(float noundef %30) #15
  %32 = fptosi float %31 to i32
  br label %35

33:                                               ; preds = %1
  %34 = load i32, ptr %0, align 4
  br label %35

35:                                               ; preds = %33, %27
  %.sink = phi i32 [ %32, %27 ], [ %34, %33 ]
  %36 = getelementptr inbounds nuw i8, ptr %0, i64 32
  store i32 %.sink, ptr %36, align 4
  %37 = getelementptr inbounds nuw i8, ptr %0, i64 20
  %38 = load i32, ptr %37, align 4
  %39 = icmp sgt i32 %38, -1
  br i1 %39, label %40, label %46

40:                                               ; preds = %35
  %41 = uitofp nneg i32 %38 to float
  %42 = load float, ptr %16, align 4
  %43 = fmul float %42, %41
  %44 = tail call float @SDL_ceilf_REAL(float noundef %43) #15
  %45 = fptosi float %44 to i32
  br label %49

46:                                               ; preds = %35
  %47 = getelementptr inbounds nuw i8, ptr %0, i64 4
  %48 = load i32, ptr %47, align 4
  br label %49

49:                                               ; preds = %46, %40
  %.sink1 = phi i32 [ %45, %40 ], [ %48, %46 ]
  %50 = getelementptr inbounds nuw i8, ptr %0, i64 36
  store i32 %.sink1, ptr %50, align 4
  ret void
}